target datalayout = "e-m:e-p270:32:32-p271:32:32-p272:64:64-i64:64-i128:128-f80:128-n8:16:32:64-S128"
target triple = "x86_64-pc-linux-gnu"

%struct.translation_ctx_st = type { ptr, i32, i32, ptr, i32, i32, ptr, i64, ptr, ptr, [50 x i8], ptr, ptr, i64 }
%struct.ossl_param_st = type { ptr, i32, ptr, i64, i64 }

@.str = private unnamed_addr constant [46 x i8] c"../openssl/crypto/evp/ctrl_params_translate.c\00", align 1
@__func__.get_payload_private_key = private unnamed_addr constant [24 x i8] c"get_payload_private_key\00", align 1

; Function Attrs: nounwind uwtable
define internal i32 @get_payload_private_key(i32 noundef %0, ptr noundef %1, ptr noundef %2) #0 {
  %4 = alloca i32, align 4
  %5 = alloca i32, align 4
  %6 = alloca ptr, align 8
  %7 = alloca ptr, align 8
  %8 = alloca ptr, align 8
  %9 = alloca i32, align 4
  %10 = alloca ptr, align 8
  %11 = alloca ptr, align 8
  store i32 %0, ptr %5, align 4, !tbaa !8
  store ptr %1, ptr %6, align 8, !tbaa !11
  store ptr %2, ptr %7, align 8, !tbaa !43
  call void @llvm.lifetime.start.p0(i64 8, ptr %8) #9
  %12 = load ptr, ptr %7, align 8, !tbaa !43
  %13 = getelementptr inbounds nuw %struct.translation_ctx_st, ptr %12, i32 0, i32 6
  %14 = load ptr, ptr %13, align 8, !tbaa !40
  store ptr %14, ptr %8, align 8, !tbaa !68
  %15 = load ptr, ptr %7, align 8, !tbaa !43
  %16 = getelementptr inbounds nuw %struct.translation_ctx_st, ptr %15, i32 0, i32 6
  store ptr null, ptr %16, align 8, !tbaa !40
  %17 = load ptr, ptr %7, align 8, !tbaa !43
  %18 = getelementptr inbounds nuw %struct.translation_ctx_st, ptr %17, i32 0, i32 8
  %19 = load ptr, ptr %18, align 8, !tbaa !42
  %20 = getelementptr inbounds nuw %struct.ossl_param_st, ptr %19, i32 0, i32 1
  %21 = load i32, ptr %20, align 8, !tbaa !62
  %22 = icmp ne i32 %21, 2
  br i1 %22, label %23, label %24

23:                                               ; preds = %3
  store i32 0, ptr %4, align 4
  store i32 1, ptr %9, align 4
  br label %47

24:                                               ; preds = %3
  %25 = load ptr, ptr %8, align 8, !tbaa !68
  %26 = call i32 @EVP_PKEY_get_base_id(ptr noundef %25)
  switch i32 %26, label %41 [
    i32 28, label %27
    i32 408, label %34
  ]

27:                                               ; preds = %24
  call void @llvm.lifetime.start.p0(i64 8, ptr %10) #9
  %28 = load ptr, ptr %8, align 8, !tbaa !68
  %29 = call ptr @EVP_PKEY_get0_DH(ptr noundef %28)
  store ptr %29, ptr %10, align 8, !tbaa !91
  %30 = load ptr, ptr %10, align 8, !tbaa !91
  %31 = call ptr @DH_get0_priv_key(ptr noundef %30)
  %32 = load ptr, ptr %7, align 8, !tbaa !43
  %33 = getelementptr inbounds nuw %struct.translation_ctx_st, ptr %32, i32 0, i32 6
  store ptr %31, ptr %33, align 8, !tbaa !40
  call void @llvm.lifetime.end.p0(i64 8, ptr %10) #9
  br label %42

34:                                               ; preds = %24
  call void @llvm.lifetime.start.p0(i64 8, ptr %11) #9
  %35 = load ptr, ptr %8, align 8, !tbaa !68
  %36 = call ptr @EVP_PKEY_get0_EC_KEY(ptr noundef %35)
  store ptr %36, ptr %11, align 8, !tbaa !97
  %37 = load ptr, ptr %11, align 8, !tbaa !97
  %38 = call ptr @EC_KEY_get0_private_key(ptr noundef %37)
  %39 = load ptr, ptr %7, align 8, !tbaa !43
  %40 = getelementptr inbounds nuw %struct.translation_ctx_st, ptr %39, i32 0, i32 6
  store ptr %38, ptr %40, align 8, !tbaa !40
  call void @llvm.lifetime.end.p0(i64 8, ptr %11) #9
  br label %42

41:                                               ; preds = %24
  call void @ERR_new()
  call void @ERR_set_debug(ptr noundef @.str, i32 noundef 1595, ptr noundef @__func__.get_payload_private_key)
  call void (i32, i32, ptr, ...) @ERR_set_error(i32 noundef 6, i32 noundef 224, ptr noundef null)
  store i32 0, ptr %4, align 4
  store i32 1, ptr %9, align 4
  br label %47

42:                                               ; preds = %34, %27
  %43 = load i32, ptr %5, align 4, !tbaa !8
  %44 = load ptr, ptr %6, align 8, !tbaa !11
  %45 = load ptr, ptr %7, align 8, !tbaa !43
  %46 = call i32 @default_fixup_args(i32 noundef %43, ptr noundef %44, ptr noundef %45)
  store i32 %46, ptr %4, align 4
  store i32 1, ptr %9, align 4
  br label %47

47:                                               ; preds = %42, %41, %23
  call void @llvm.lifetime.end.p0(i64 8, ptr %8) #9
  %48 = load i32, ptr %4, align 4
  ret i32 %48
}