; Function Attrs: nounwind uwtable
define internal i32 @get_payload_private_key(i32 noundef %0, ptr noundef captures(address_is_null) %1, ptr noundef %2) #0 {
  %4 = getelementptr inbounds nuw i8, ptr %2, i64 32
  %5 = load ptr, ptr %4, align 8, !tbaa !35
  store ptr null, ptr %4, align 8, !tbaa !35
  %6 = getelementptr inbounds nuw i8, ptr %2, i64 48
  %7 = load ptr, ptr %6, align 8, !tbaa !37
  %8 = getelementptr inbounds nuw i8, ptr %7, i64 8
  %9 = load i32, ptr %8, align 8, !tbaa !57
  %.not = icmp eq i32 %9, 2
  br i1 %.not, label %10, label %21

10:                                               ; preds = %3
  %11 = tail call i32 @EVP_PKEY_get_base_id(ptr noundef %5) #8
  switch i32 %11, label %18 [
    i32 28, label %12
    i32 408, label %15
  ]

12:                                               ; preds = %10
  %13 = tail call ptr @EVP_PKEY_get0_DH(ptr noundef %5) #8
  %14 = tail call ptr @DH_get0_priv_key(ptr noundef %13) #8
  br label %19

15:                                               ; preds = %10
  %16 = tail call ptr @EVP_PKEY_get0_EC_KEY(ptr noundef %5) #8
  %17 = tail call ptr @EC_KEY_get0_private_key(ptr noundef %16) #8
  br label %19

18:                                               ; preds = %10
  tail call void @ERR_new() #8
  tail call void @ERR_set_debug(ptr noundef nonnull @.str, i32 noundef 1595, ptr noundef nonnull @__func__.get_payload_private_key) #8
  tail call void (i32, i32, ptr, ...) @ERR_set_error(i32 noundef 6, i32 noundef 224, ptr noundef null) #8
  br label %21

19:                                               ; preds = %15, %12
  %storemerge = phi ptr [ %17, %15 ], [ %14, %12 ]
  store ptr %storemerge, ptr %4, align 8, !tbaa !35
  %20 = tail call i32 @default_fixup_args(i32 noundef %0, ptr noundef %1, ptr noundef nonnull %2)
  br label %21

21:                                               ; preds = %3, %19, %18
  %.0 = phi i32 [ 0, %18 ], [ %20, %19 ], [ 0, %3 ]
  ret i32 %.0
}